; Function Attrs: mustprogress uwtable
define dso_local noundef float @_ZN24b3GpuPgsConstraintSolver10solveGroupEP13b3OpenCLArrayI15b3RigidBodyDataEPS0_I13b3InertiaDataEiPS0_I22b3GpuGenericConstraintEiRK19b3ContactSolverInfo(ptr noundef nonnull align 8 dereferenceable(228) %this, ptr noundef %gpuBodies, ptr noundef %gpuInertias, i32 noundef %numBodies, ptr noundef %gpuConstraints, i32 noundef %numConstraints, ptr noundef nonnull align 4 dereferenceable(84) %infoGlobal) local_unnamed_addr #1 align 2 personality ptr @__gxx_personality_v0 {
entry:
  tail call void @b3EnterProfileZone(ptr noundef nonnull @.str.24)
  %vtable = load ptr, ptr %this, align 8
  %vfn = getelementptr inbounds i8, ptr %vtable, i64 24
  %0 = load ptr, ptr %vfn, align 8
  %call = invoke noundef float %0(ptr noundef nonnull align 8 dereferenceable(228) %this, ptr noundef %gpuBodies, ptr noundef %gpuInertias, i32 noundef %numBodies, ptr noundef %gpuConstraints, i32 noundef %numConstraints, ptr noundef nonnull align 4 dereferenceable(84) %infoGlobal)
          to label %invoke.cont unwind label %lpad

invoke.cont:                                      ; preds = %entry
  %vtable2 = load ptr, ptr %this, align 8
  %vfn3 = getelementptr inbounds i8, ptr %vtable2, i64 16
  %1 = load ptr, ptr %vfn3, align 8
  %call5 = invoke noundef float %1(ptr noundef nonnull align 8 dereferenceable(228) %this, ptr noundef %gpuConstraints, i32 noundef %numConstraints, ptr noundef nonnull align 4 dereferenceable(84) %infoGlobal)
          to label %invoke.cont4 unwind label %lpad

invoke.cont4:                                     ; preds = %invoke.cont
  %call7 = invoke noundef float @_ZN24b3GpuPgsConstraintSolver29solveGroupCacheFriendlyFinishEP13b3OpenCLArrayI15b3RigidBodyDataEPS0_I13b3InertiaDataEiPS0_I22b3GpuGenericConstraintEiRK19b3ContactSolverInfo(ptr noundef nonnull align 8 dereferenceable(228) %this, ptr noundef %gpuBodies, ptr poison, i32 noundef %numBodies, ptr noundef %gpuConstraints, i32 noundef %numConstraints, ptr noundef nonnull align 4 dereferenceable(84) %infoGlobal)
          to label %invoke.cont6 unwind label %lpad

invoke.cont6:                                     ; preds = %invoke.cont4
  invoke void @b3LeaveProfileZone()
          to label %_ZN13b3ProfileZoneD2Ev.exit unwind label %terminate.lpad.i

terminate.lpad.i:                                 ; preds = %invoke.cont6
  %2 = landingpad { ptr, i32 }
          catch ptr null
  %3 = extractvalue { ptr, i32 } %2, 0
  tail call void @__clang_call_terminate(ptr %3) #22
  unreachable

_ZN13b3ProfileZoneD2Ev.exit:                      ; preds = %invoke.cont6
  ret float 0.000000e+00

lpad:                                             ; preds = %invoke.cont4, %invoke.cont, %entry
  %4 = landingpad { ptr, i32 }
          cleanup
  invoke void @b3LeaveProfileZone()
          to label %_ZN13b3ProfileZoneD2Ev.exit11 unwind label %terminate.lpad.i10

terminate.lpad.i10:                               ; preds = %lpad
  %5 = landingpad { ptr, i32 }
          catch ptr null
  %6 = extractvalue { ptr, i32 } %5, 0
  tail call void @__clang_call_terminate(ptr %6) #22
  unreachable

_ZN13b3ProfileZoneD2Ev.exit11:                    ; preds = %lpad
  resume { ptr, i32 } %4
}